target datalayout = "e-m:e-p270:32:32-p271:32:32-p272:64:64-i64:64-i128:128-f80:128-n8:16:32:64-S128"
target triple = "x86_64-pc-linux-gnu"

%struct.AVRational = type { i32, i32 }
%struct.AVChannelLayout = type { i32, i32, %union.anon, ptr }
%union.anon = type { i64 }
%struct.FilterGraphPriv = type { %struct.FilterGraph, [32 x i8], i32, i32, i32, i32, i32, ptr, i32, ptr, ptr, ptr, i32, %struct.AVBPrint }
%struct.FilterGraph = type { ptr, i32, ptr, i32, ptr, i32 }
%struct.AVBPrint = type { ptr, i32, i32, i32, [1 x i8], [1000 x i8] }
%struct.AVFrame = type { [8 x ptr], [8 x i32], ptr, i32, i32, i32, i32, i32, %struct.AVRational, i64, i64, %struct.AVRational, i32, ptr, i32, i32, [8 x ptr], ptr, i32, ptr, i32, i32, i32, i32, i32, i32, i32, i64, ptr, i32, ptr, ptr, i64, i64, i64, i64, ptr, %struct.AVChannelLayout, i64 }
%struct.FilterCommand = type { ptr, ptr, ptr, double, i32 }

; Function Attrs: inlinehint nounwind uwtable
define internal ptr @fgp_from_fg(ptr noundef %0) #2 {
  %2 = alloca ptr, align 8
  store ptr %0, ptr %2, align 8, !tbaa !20
  %3 = load ptr, ptr %2, align 8, !tbaa !20
  ret ptr %3
}

; Function Attrs: nounwind uwtable
define void @fg_send_command(ptr noundef %0, double noundef %1, ptr noundef %2, ptr noundef %3, ptr noundef %4, i32 noundef %5) #0 {
  %7 = alloca ptr, align 8
  %8 = alloca double, align 8
  %9 = alloca ptr, align 8
  %10 = alloca ptr, align 8
  %11 = alloca ptr, align 8
  %12 = alloca i32, align 4
  %13 = alloca ptr, align 8
  %14 = alloca ptr, align 8
  %15 = alloca ptr, align 8
  %16 = alloca i32, align 4
  store ptr %0, ptr %7, align 8, !tbaa !20
  store double %1, ptr %8, align 8, !tbaa !252
  store ptr %2, ptr %9, align 8, !tbaa !132
  store ptr %3, ptr %10, align 8, !tbaa !132
  store ptr %4, ptr %11, align 8, !tbaa !132
  store i32 %5, ptr %12, align 4, !tbaa !9
  call void @llvm.lifetime.start.p0(i64 8, ptr %13) #14
  %17 = load ptr, ptr %7, align 8, !tbaa !20
  %18 = call ptr @fgp_from_fg(ptr noundef %17)
  store ptr %18, ptr %13, align 8, !tbaa !21
  call void @llvm.lifetime.start.p0(i64 8, ptr %14) #14
  call void @llvm.lifetime.start.p0(i64 8, ptr %15) #14
  %19 = call noalias ptr @av_mallocz(i64 noundef 40)
  store ptr %19, ptr %15, align 8, !tbaa !206
  %20 = load ptr, ptr %15, align 8, !tbaa !206
  %21 = icmp ne ptr %20, null
  br i1 %21, label %23, label %22

22:                                               ; preds = %6
  store i32 1, ptr %16, align 4
  br label %84

23:                                               ; preds = %6
  %24 = load ptr, ptr %15, align 8, !tbaa !206
  %25 = call ptr @av_buffer_create(ptr noundef %24, i64 noundef 40, ptr noundef @filter_command_free, ptr noundef null, i32 noundef 0)
  store ptr %25, ptr %14, align 8, !tbaa !180
  %26 = load ptr, ptr %14, align 8, !tbaa !180
  %27 = icmp ne ptr %26, null
  br i1 %27, label %29, label %28

28:                                               ; preds = %23
  call void @av_freep(ptr noundef %15)
  store i32 1, ptr %16, align 4
  br label %84

29:                                               ; preds = %23
  %30 = load ptr, ptr %9, align 8, !tbaa !132
  %31 = call noalias ptr @av_strdup(ptr noundef %30)
  %32 = load ptr, ptr %15, align 8, !tbaa !206
  %33 = getelementptr inbounds nuw %struct.FilterCommand, ptr %32, i32 0, i32 0
  store ptr %31, ptr %33, align 8, !tbaa !211
  %34 = load ptr, ptr %10, align 8, !tbaa !132
  %35 = call noalias ptr @av_strdup(ptr noundef %34)
  %36 = load ptr, ptr %15, align 8, !tbaa !206
  %37 = getelementptr inbounds nuw %struct.FilterCommand, ptr %36, i32 0, i32 1
  store ptr %35, ptr %37, align 8, !tbaa !212
  %38 = load ptr, ptr %11, align 8, !tbaa !132
  %39 = call noalias ptr @av_strdup(ptr noundef %38)
  %40 = load ptr, ptr %15, align 8, !tbaa !206
  %41 = getelementptr inbounds nuw %struct.FilterCommand, ptr %40, i32 0, i32 2
  store ptr %39, ptr %41, align 8, !tbaa !213
  %42 = load ptr, ptr %15, align 8, !tbaa !206
  %43 = getelementptr inbounds nuw %struct.FilterCommand, ptr %42, i32 0, i32 0
  %44 = load ptr, ptr %43, align 8, !tbaa !211
  %45 = icmp ne ptr %44, null
  br i1 %45, label %46, label %56

46:                                               ; preds = %29
  %47 = load ptr, ptr %15, align 8, !tbaa !206
  %48 = getelementptr inbounds nuw %struct.FilterCommand, ptr %47, i32 0, i32 1
  %49 = load ptr, ptr %48, align 8, !tbaa !212
  %50 = icmp ne ptr %49, null
  br i1 %50, label %51, label %56

51:                                               ; preds = %46
  %52 = load ptr, ptr %15, align 8, !tbaa !206
  %53 = getelementptr inbounds nuw %struct.FilterCommand, ptr %52, i32 0, i32 2
  %54 = load ptr, ptr %53, align 8, !tbaa !213
  %55 = icmp ne ptr %54, null
  br i1 %55, label %57, label %56

56:                                               ; preds = %51, %46, %29
  call void @av_buffer_unref(ptr noundef %14)
  store i32 1, ptr %16, align 4
  br label %84

57:                                               ; preds = %51
  %58 = load double, ptr %8, align 8, !tbaa !252
  %59 = load ptr, ptr %15, align 8, !tbaa !206
  %60 = getelementptr inbounds nuw %struct.FilterCommand, ptr %59, i32 0, i32 3
  store double %58, ptr %60, align 8, !tbaa !209
  %61 = load i32, ptr %12, align 4, !tbaa !9
  %62 = load ptr, ptr %15, align 8, !tbaa !206
  %63 = getelementptr inbounds nuw %struct.FilterCommand, ptr %62, i32 0, i32 4
  store i32 %61, ptr %63, align 8, !tbaa !214
  %64 = load ptr, ptr %14, align 8, !tbaa !180
  %65 = load ptr, ptr %13, align 8, !tbaa !21
  %66 = getelementptr inbounds nuw %struct.FilterGraphPriv, ptr %65, i32 0, i32 9
  %67 = load ptr, ptr %66, align 8, !tbaa !138
  %68 = getelementptr inbounds nuw %struct.AVFrame, ptr %67, i32 0, i32 16
  %69 = getelementptr inbounds [8 x ptr], ptr %68, i64 0, i64 0
  store ptr %64, ptr %69, align 8, !tbaa !180
  %70 = load ptr, ptr %13, align 8, !tbaa !21
  %71 = getelementptr inbounds nuw %struct.FilterGraphPriv, ptr %70, i32 0, i32 9
  %72 = load ptr, ptr %71, align 8, !tbaa !138
  %73 = getelementptr inbounds nuw %struct.AVFrame, ptr %72, i32 0, i32 13
  store ptr inttoptr (i64 3 to ptr), ptr %73, align 8, !tbaa !199
  %74 = load ptr, ptr %13, align 8, !tbaa !21
  %75 = getelementptr inbounds nuw %struct.FilterGraphPriv, ptr %74, i32 0, i32 11
  %76 = load ptr, ptr %75, align 8, !tbaa !98
  %77 = load ptr, ptr %13, align 8, !tbaa !21
  %78 = getelementptr inbounds nuw %struct.FilterGraphPriv, ptr %77, i32 0, i32 12
  %79 = load i32, ptr %78, align 8, !tbaa !101
  %80 = load ptr, ptr %13, align 8, !tbaa !21
  %81 = getelementptr inbounds nuw %struct.FilterGraphPriv, ptr %80, i32 0, i32 9
  %82 = load ptr, ptr %81, align 8, !tbaa !138
  %83 = call i32 @sch_filter_command(ptr noundef %76, i32 noundef %79, ptr noundef %82)
  store i32 0, ptr %16, align 4
  br label %84

84:                                               ; preds = %57, %56, %28, %22
  call void @llvm.lifetime.end.p0(i64 8, ptr %15) #14
  call void @llvm.lifetime.end.p0(i64 8, ptr %14) #14
  call void @llvm.lifetime.end.p0(i64 8, ptr %13) #14
  %85 = load i32, ptr %16, align 4
  switch i32 %85, label %87 [
    i32 0, label %86
    i32 1, label %86
  ]

86:                                               ; preds = %84, %84
  ret void

87:                                               ; preds = %84
  unreachable
}