; Function Attrs: nounwind uwtable
define void @fg_send_command(ptr noundef readonly captures(none) %0, double noundef %1, ptr noundef %2, ptr noundef %3, ptr noundef %4, i32 noundef %5) local_unnamed_addr #0 {
  %7 = alloca ptr, align 8
  %8 = alloca ptr, align 8
  call void @llvm.lifetime.start.p0(i64 8, ptr nonnull %7) #17
  call void @llvm.lifetime.start.p0(i64 8, ptr nonnull %8) #17
  %9 = tail call noalias ptr @av_mallocz(i64 noundef 40) #17
  store ptr %9, ptr %8, align 8, !tbaa !324
  %.not = icmp eq ptr %9, null
  br i1 %.not, label %35, label %10

10:                                               ; preds = %6
  %11 = tail call ptr @av_buffer_create(ptr noundef nonnull %9, i64 noundef 40, ptr noundef nonnull @filter_command_free, ptr noundef null, i32 noundef 0) #17
  store ptr %11, ptr %7, align 8, !tbaa !211
  %.not10 = icmp eq ptr %11, null
  br i1 %.not10, label %12, label %13

12:                                               ; preds = %10
  call void @av_freep(ptr noundef nonnull %8) #17
  br label %35

13:                                               ; preds = %10
  %14 = tail call noalias ptr @av_strdup(ptr noundef %2) #17
  store ptr %14, ptr %9, align 8, !tbaa !218
  %15 = tail call noalias ptr @av_strdup(ptr noundef %3) #17
  %16 = getelementptr inbounds nuw i8, ptr %9, i64 8
  store ptr %15, ptr %16, align 8, !tbaa !219
  %17 = tail call noalias ptr @av_strdup(ptr noundef %4) #17
  %18 = getelementptr inbounds nuw i8, ptr %9, i64 16
  store ptr %17, ptr %18, align 8, !tbaa !220
  %19 = load ptr, ptr %9, align 8, !tbaa !218
  %.not11 = icmp eq ptr %19, null
  br i1 %.not11, label %22, label %20

20:                                               ; preds = %13
  %21 = load ptr, ptr %16, align 8, !tbaa !219
  %.not12 = icmp eq ptr %21, null
  %.not13 = icmp eq ptr %17, null
  %or.cond = select i1 %.not12, i1 true, i1 %.not13
  br i1 %or.cond, label %22, label %23

22:                                               ; preds = %20, %13
  call void @av_buffer_unref(ptr noundef nonnull %7) #17
  br label %35

23:                                               ; preds = %20
  %24 = getelementptr inbounds nuw i8, ptr %9, i64 24
  store double %1, ptr %24, align 8, !tbaa !216
  %25 = getelementptr inbounds nuw i8, ptr %9, i64 32
  store i32 %5, ptr %25, align 8, !tbaa !221
  %26 = getelementptr inbounds nuw i8, ptr %0, i64 120
  %27 = load ptr, ptr %26, align 8, !tbaa !123
  %28 = getelementptr inbounds nuw i8, ptr %27, i64 184
  store ptr %11, ptr %28, align 8, !tbaa !211
  %29 = getelementptr inbounds nuw i8, ptr %27, i64 168
  store ptr inttoptr (i64 3 to ptr), ptr %29, align 8, !tbaa !207
  %30 = getelementptr inbounds nuw i8, ptr %0, i64 136
  %31 = load ptr, ptr %30, align 8, !tbaa !91
  %32 = getelementptr inbounds nuw i8, ptr %0, i64 144
  %33 = load i32, ptr %32, align 8, !tbaa !92
  %34 = tail call i32 @sch_filter_command(ptr noundef %31, i32 noundef %33, ptr noundef %27) #17
  br label %35

35:                                               ; preds = %6, %23, %22, %12
  call void @llvm.lifetime.end.p0(i64 8, ptr nonnull %8) #17
  call void @llvm.lifetime.end.p0(i64 8, ptr nonnull %7) #17
  ret void
}